; Function Attrs: nounwind uwtable
define internal fastcc noundef ptr @type_flatten(ptr nocapture noundef readonly %0) unnamed_addr #0 {
  br label %2

2:                                                ; preds = %16, %1
  %.0 = phi ptr [ %0, %1 ], [ %.1, %16 ]
  %3 = getelementptr inbounds i8, ptr %.0, i64 8
  %4 = load ptr, ptr %3, align 8
  %5 = load i32, ptr %4, align 8
  switch i32 %5, label %15 [
    i32 32, label %6
    i32 40, label %12
    i32 31, label %14
  ]

6:                                                ; preds = %2
  %7 = getelementptr inbounds i8, ptr %4, i64 56
  %8 = load ptr, ptr %7, align 8
  %9 = getelementptr inbounds i8, ptr %8, i64 96
  %10 = load ptr, ptr %9, align 8
  %11 = getelementptr inbounds i8, ptr %10, i64 8
  br label %16

12:                                               ; preds = %2
  %13 = getelementptr inbounds i8, ptr %4, i64 56
  br label %16

14:                                               ; preds = %2
  tail call void (ptr, ...) @error_exit(ptr noundef nonnull @.str.15, ptr noundef nonnull @.str.16, ptr noundef nonnull @__func__.type_flatten, ptr noundef nonnull @.str.55, i32 noundef 2984) #10
  unreachable

15:                                               ; preds = %2
  ret ptr %4

16:                                               ; preds = %12, %6
  %.1.in = phi ptr [ %13, %12 ], [ %11, %6 ]
  %.1 = load ptr, ptr %.1.in, align 8
  br label %2
}